target datalayout = "e-m:e-p270:32:32-p271:32:32-p272:64:64-i64:64-i128:128-f80:128-n8:16:32:64-S128"
target triple = "x86_64-pc-linux-gnu"

%struct.AVCodecContext = type { ptr, i32, i32, ptr, i32, i32, ptr, ptr, ptr, i64, i32, i32, ptr, i32, %struct.AVRational, %struct.AVRational, %struct.AVRational, i32, i32, i32, i32, i32, %struct.AVRational, i32, i32, i32, i32, i32, i32, i32, i32, i32, i32, i32, ptr, ptr, i32, float, float, float, float, float, float, float, float, float, i32, i32, i32, i32, i32, i32, i32, i32, i32, i32, i32, i32, ptr, ptr, ptr, i32, i32, i32, i32, i32, i32, i32, i32, i32, i32, %struct.AVChannelLayout, i32, i32, i32, i32, i32, i32, i32, i32, ptr, i32, i32, i32, float, float, i32, i32, i32, i32, i32, ptr, i64, i64, float, float, i32, i32, ptr, ptr, i32, i32, i32, i32, i32, ptr, ptr, ptr, ptr, i32, i32, [8 x i64], i32, i32, i32, i32, i32, i32, i32, ptr, ptr, i32, i32, i32, i32, i32, i32, i32, i32, i32, i32, ptr, ptr, i32, i32, ptr, ptr, ptr, ptr, i32, i32, i64, i32, i32, i64, ptr, i64, ptr, i32, ptr, i32 }
%struct.AVRational = type { i32, i32 }
%struct.AVChannelLayout = type { i32, i32, %union.anon.0, ptr }
%union.anon.0 = type { i64 }
%struct.IpvideoContext = type { ptr, %struct.HpelDSPContext, ptr, ptr, ptr, ptr, ptr, i32, ptr, i32, i32, %struct.GetByteContext, %struct.GetByteContext, ptr, i32, i32, i32, [256 x i32] }
%struct.HpelDSPContext = type { [4 x [4 x ptr]], [4 x [4 x ptr]], [4 x [4 x ptr]], [4 x ptr] }
%struct.GetByteContext = type { ptr, ptr, ptr }

; Function Attrs: alwaysinline nounwind uwtable
define internal i32 @bytestream2_get_buffer(ptr noundef %0, ptr noundef %1, i32 noundef %2) #4 {
  %4 = alloca ptr, align 8
  %5 = alloca ptr, align 8
  %6 = alloca i32, align 4
  %7 = alloca i32, align 4
  store ptr %0, ptr %4, align 8, !tbaa !67
  store ptr %1, ptr %5, align 8, !tbaa !59
  store i32 %2, ptr %6, align 4, !tbaa !61
  call void @llvm.lifetime.start.p0(i64 4, ptr %7) #11
  %8 = load ptr, ptr %4, align 8, !tbaa !67
  %9 = getelementptr inbounds nuw %struct.GetByteContext, ptr %8, i32 0, i32 1
  %10 = load ptr, ptr %9, align 8, !tbaa !71
  %11 = load ptr, ptr %4, align 8, !tbaa !67
  %12 = getelementptr inbounds nuw %struct.GetByteContext, ptr %11, i32 0, i32 0
  %13 = load ptr, ptr %12, align 8, !tbaa !69
  %14 = ptrtoint ptr %10 to i64
  %15 = ptrtoint ptr %13 to i64
  %16 = sub i64 %14, %15
  %17 = load i32, ptr %6, align 4, !tbaa !61
  %18 = zext i32 %17 to i64
  %19 = icmp sgt i64 %16, %18
  br i1 %19, label %20, label %23

20:                                               ; preds = %3
  %21 = load i32, ptr %6, align 4, !tbaa !61
  %22 = zext i32 %21 to i64
  br label %33

23:                                               ; preds = %3
  %24 = load ptr, ptr %4, align 8, !tbaa !67
  %25 = getelementptr inbounds nuw %struct.GetByteContext, ptr %24, i32 0, i32 1
  %26 = load ptr, ptr %25, align 8, !tbaa !71
  %27 = load ptr, ptr %4, align 8, !tbaa !67
  %28 = getelementptr inbounds nuw %struct.GetByteContext, ptr %27, i32 0, i32 0
  %29 = load ptr, ptr %28, align 8, !tbaa !69
  %30 = ptrtoint ptr %26 to i64
  %31 = ptrtoint ptr %29 to i64
  %32 = sub i64 %30, %31
  br label %33

33:                                               ; preds = %23, %20
  %34 = phi i64 [ %22, %20 ], [ %32, %23 ]
  %35 = trunc i64 %34 to i32
  store i32 %35, ptr %7, align 4, !tbaa !61
  %36 = load ptr, ptr %5, align 8, !tbaa !59
  %37 = load ptr, ptr %4, align 8, !tbaa !67
  %38 = getelementptr inbounds nuw %struct.GetByteContext, ptr %37, i32 0, i32 0
  %39 = load ptr, ptr %38, align 8, !tbaa !69
  %40 = load i32, ptr %7, align 4, !tbaa !61
  %41 = zext i32 %40 to i64
  call void @llvm.memcpy.p0.p0.i64(ptr align 1 %36, ptr align 1 %39, i64 %41, i1 false)
  %42 = load i32, ptr %7, align 4, !tbaa !61
  %43 = load ptr, ptr %4, align 8, !tbaa !67
  %44 = getelementptr inbounds nuw %struct.GetByteContext, ptr %43, i32 0, i32 0
  %45 = load ptr, ptr %44, align 8, !tbaa !69
  %46 = zext i32 %42 to i64
  %47 = getelementptr inbounds nuw i8, ptr %45, i64 %46
  store ptr %47, ptr %44, align 8, !tbaa !69
  %48 = load i32, ptr %7, align 4, !tbaa !61
  call void @llvm.lifetime.end.p0(i64 4, ptr %7) #11
  ret i32 %48
}

; Function Attrs: nounwind uwtable
define internal void @ipvideo_format_06_firstpass(ptr noundef %0, ptr noundef %1, i16 noundef signext %2) #1 {
  %4 = alloca ptr, align 8
  %5 = alloca ptr, align 8
  %6 = alloca i16, align 2
  %7 = alloca i32, align 4
  store ptr %0, ptr %4, align 8, !tbaa !29
  store ptr %1, ptr %5, align 8, !tbaa !53
  store i16 %2, ptr %6, align 2, !tbaa !75
  call void @llvm.lifetime.start.p0(i64 4, ptr %7) #11
  %8 = load i16, ptr %6, align 2, !tbaa !75
  %9 = icmp ne i16 %8, 0
  br i1 %9, label %33, label %10

10:                                               ; preds = %3
  store i32 0, ptr %7, align 4, !tbaa !61
  br label %11

11:                                               ; preds = %29, %10
  %12 = load i32, ptr %7, align 4, !tbaa !61
  %13 = icmp slt i32 %12, 8
  br i1 %13, label %14, label %32

14:                                               ; preds = %11
  %15 = load ptr, ptr %4, align 8, !tbaa !29
  %16 = getelementptr inbounds nuw %struct.IpvideoContext, ptr %15, i32 0, i32 11
  %17 = load ptr, ptr %4, align 8, !tbaa !29
  %18 = getelementptr inbounds nuw %struct.IpvideoContext, ptr %17, i32 0, i32 13
  %19 = load ptr, ptr %18, align 8, !tbaa !77
  %20 = call i32 @bytestream2_get_buffer(ptr noundef %16, ptr noundef %19, i32 noundef 8)
  %21 = load ptr, ptr %4, align 8, !tbaa !29
  %22 = getelementptr inbounds nuw %struct.IpvideoContext, ptr %21, i32 0, i32 15
  %23 = load i32, ptr %22, align 4, !tbaa !72
  %24 = load ptr, ptr %4, align 8, !tbaa !29
  %25 = getelementptr inbounds nuw %struct.IpvideoContext, ptr %24, i32 0, i32 13
  %26 = load ptr, ptr %25, align 8, !tbaa !77
  %27 = sext i32 %23 to i64
  %28 = getelementptr inbounds i8, ptr %26, i64 %27
  store ptr %28, ptr %25, align 8, !tbaa !77
  br label %29

29:                                               ; preds = %14
  %30 = load i32, ptr %7, align 4, !tbaa !61
  %31 = add nsw i32 %30, 1
  store i32 %31, ptr %7, align 4, !tbaa !61
  br label %11, !llvm.loop !95

32:                                               ; preds = %11
  br label %48

33:                                               ; preds = %3
  %34 = load ptr, ptr %4, align 8, !tbaa !29
  %35 = getelementptr inbounds nuw %struct.IpvideoContext, ptr %34, i32 0, i32 0
  %36 = load ptr, ptr %35, align 8, !tbaa !31
  %37 = getelementptr inbounds nuw %struct.AVCodecContext, ptr %36, i32 0, i32 146
  %38 = load i64, ptr %37, align 8, !tbaa !88
  %39 = icmp sgt i64 %38, 2
  br i1 %39, label %40, label %47

40:                                               ; preds = %33
  %41 = load ptr, ptr %4, align 8, !tbaa !29
  %42 = load ptr, ptr %4, align 8, !tbaa !29
  %43 = getelementptr inbounds nuw %struct.IpvideoContext, ptr %42, i32 0, i32 2
  %44 = load ptr, ptr %43, align 8, !tbaa !41
  %45 = load ptr, ptr %5, align 8, !tbaa !53
  %46 = call i32 @copy_from(ptr noundef %41, ptr noundef %44, ptr noundef %45, i32 noundef 0, i32 noundef 0)
  br label %47

47:                                               ; preds = %40, %33
  br label %48

48:                                               ; preds = %47, %32
  call void @llvm.lifetime.end.p0(i64 4, ptr %7) #11
  ret void
}