; Function Attrs: nounwind uwtable
define internal void @ipvideo_format_06_firstpass(ptr noundef captures(none) %0, ptr noundef readonly captures(none) %1, i16 noundef signext %2) #1 {
  %.not = icmp eq i16 %2, 0
  br i1 %.not, label %.preheader, label %24

.preheader:                                       ; preds = %3
  %4 = getelementptr inbounds nuw i8, ptr %0, i64 488
  %5 = getelementptr inbounds nuw i8, ptr %0, i64 536
  %6 = getelementptr inbounds nuw i8, ptr %0, i64 496
  %7 = getelementptr inbounds nuw i8, ptr %0, i64 548
  %.pre = load ptr, ptr %5, align 8, !tbaa !67
  %.pre11 = load ptr, ptr %4, align 8, !tbaa !58
  br label %8

8:                                                ; preds = %.preheader, %8
  %9 = phi ptr [ %.pre11, %.preheader ], [ %18, %8 ]
  %10 = phi ptr [ %.pre, %.preheader ], [ %22, %8 ]
  %.010 = phi i32 [ 0, %.preheader ], [ %23, %8 ]
  %11 = load ptr, ptr %6, align 8, !tbaa !60
  %12 = ptrtoint ptr %11 to i64
  %13 = ptrtoint ptr %9 to i64
  %14 = sub i64 %12, %13
  %15 = tail call i64 @llvm.smin.i64(i64 %14, i64 8)
  %16 = and i64 %15, 4294967295
  tail call void @llvm.memcpy.p0.p0.i64(ptr align 1 %10, ptr align 1 %9, i64 %16, i1 false)
  %17 = load ptr, ptr %4, align 8, !tbaa !58
  %18 = getelementptr inbounds nuw i8, ptr %17, i64 %16
  store ptr %18, ptr %4, align 8, !tbaa !58
  %19 = load i32, ptr %7, align 4, !tbaa !63
  %20 = load ptr, ptr %5, align 8, !tbaa !67
  %21 = sext i32 %19 to i64
  %22 = getelementptr inbounds i8, ptr %20, i64 %21
  store ptr %22, ptr %5, align 8, !tbaa !67
  %23 = add nuw nsw i32 %.010, 1
  %exitcond.not = icmp eq i32 %23, 8
  br i1 %exitcond.not, label %.loopexit, label %8, !llvm.loop !85

24:                                               ; preds = %3
  %25 = load ptr, ptr %0, align 8, !tbaa !27
  %26 = getelementptr inbounds nuw i8, ptr %25, i64 824
  %27 = load i64, ptr %26, align 8, !tbaa !78
  %28 = icmp sgt i64 %27, 2
  br i1 %28, label %29, label %.loopexit

29:                                               ; preds = %24
  %30 = getelementptr inbounds nuw i8, ptr %0, i64 424
  %31 = load ptr, ptr %30, align 8, !tbaa !38
  %32 = tail call fastcc i32 @copy_from(ptr noundef nonnull %0, ptr noundef %31, ptr noundef %1, i32 noundef 0, i32 noundef 0)
  br label %.loopexit

.loopexit:                                        ; preds = %8, %24, %29
  ret void
}